target datalayout = "e-m:e-p270:32:32-p271:32:32-p272:64:64-i64:64-i128:128-f80:128-n8:16:32:64-S128"
target triple = "x86_64-unknown-linux-gnu"

%struct.ESPState = type { %struct.DeviceState, [16 x i8], [16 x i8], ptr, ptr, i8, i8, i32, i32, i32, %struct.Fifo8, %struct.SCSIBus, ptr, ptr, %struct.Fifo8, i8, i8, i32, i8, i8, i32, i32, ptr, ptr, ptr, ptr, ptr, i8, i8, i32, i32, i8, i32, i32, [16 x i8], [32 x i8], i32 }
%struct.DeviceState = type { %struct.Object, ptr, ptr, i8, i8, i64, ptr, i32, i8, ptr, %struct.NamedGPIOListHead, %struct.NamedClockListHead, %struct.BusStateHead, i32, i32, i32, %struct.ResettableState, ptr, %struct.MemReentrancyGuard }
%struct.Object = type { ptr, ptr, ptr, i32, ptr }
%struct.NamedGPIOListHead = type { ptr }
%struct.NamedClockListHead = type { ptr }
%struct.BusStateHead = type { ptr }
%struct.ResettableState = type { i32, i8, i8 }
%struct.MemReentrancyGuard = type { i8 }
%struct.SCSIBus = type { %struct.BusState, i32, %struct.SCSISense, ptr, i32 }
%struct.BusState = type { %struct.Object, ptr, ptr, ptr, i32, i8, i8, i32, %union.BusChildHead, %struct.BusStateEntry, %struct.ResettableState }
%union.BusChildHead = type { %struct.QTailQLink }
%struct.QTailQLink = type { ptr, ptr }
%struct.BusStateEntry = type { ptr, ptr }
%struct.SCSISense = type { i8, i8, i8 }
%struct.Fifo8 = type { ptr, i32, i32, i32 }
%struct.timeval = type { i64, i64 }

@trace_events_enabled_count = external global i32, align 4
@message_with_timestamp = external global i8, align 1
@_TRACE_ESP_HANDLE_TI_CMD_DSTATE = external global i16, align 2
@.str.45 = private unnamed_addr constant [47 x i8] c"%d@%zu.%06zu:esp_handle_ti_cmd command len %d\0A\00", align 1
@.str.46 = private unnamed_addr constant [34 x i8] c"esp_handle_ti_cmd command len %d\0A\00", align 1
@qemu_loglevel = external global i32, align 4

; Function Attrs: nounwind sspstrong uwtable
define internal zeroext i1 @qemu_loglevel_mask(i32 noundef %mask) #0 {
entry:
  %mask.addr = alloca i32, align 4
  store i32 %mask, ptr %mask.addr, align 4
  %0 = load i32, ptr @qemu_loglevel, align 4
  %1 = load i32, ptr %mask.addr, align 4
  %and = and i32 %0, %1
  %cmp = icmp ne i32 %and, 0
  ret i1 %cmp
}

; Function Attrs: nounwind sspstrong uwtable
define internal void @_nocheck__trace_esp_handle_ti_cmd(i32 noundef %cmdlen) #0 {
entry:
  %cmdlen.addr = alloca i32, align 4
  %_now = alloca %struct.timeval, align 8
  store i32 %cmdlen, ptr %cmdlen.addr, align 4
  %0 = load i32, ptr @trace_events_enabled_count, align 4
  %tobool = icmp ne i32 %0, 0
  %lnot = xor i1 %tobool, true
  %lnot1 = xor i1 %lnot, true
  %lnot.ext = zext i1 %lnot1 to i32
  %conv = sext i32 %lnot.ext to i64
  %tobool2 = icmp ne i64 %conv, 0
  br i1 %tobool2, label %land.lhs.true, label %if.end11

land.lhs.true:                                    ; preds = %entry
  %1 = load i16, ptr @_TRACE_ESP_HANDLE_TI_CMD_DSTATE, align 2
  %conv3 = zext i16 %1 to i32
  %tobool4 = icmp ne i32 %conv3, 0
  br i1 %tobool4, label %land.lhs.true5, label %if.end11

land.lhs.true5:                                   ; preds = %land.lhs.true
  %call = call zeroext i1 @qemu_loglevel_mask(i32 noundef 32768)
  br i1 %call, label %if.then, label %if.end11

if.then:                                          ; preds = %land.lhs.true5
  %2 = load i8, ptr @message_with_timestamp, align 1
  %tobool7 = trunc i8 %2 to i1
  br i1 %tobool7, label %if.then8, label %if.else

if.then8:                                         ; preds = %if.then
  %call9 = call i32 @gettimeofday(ptr noundef %_now, ptr noundef null) #8
  %call10 = call i32 @qemu_get_thread_id()
  %tv_sec = getelementptr inbounds %struct.timeval, ptr %_now, i32 0, i32 0
  %3 = load i64, ptr %tv_sec, align 8
  %tv_usec = getelementptr inbounds %struct.timeval, ptr %_now, i32 0, i32 1
  %4 = load i64, ptr %tv_usec, align 8
  %5 = load i32, ptr %cmdlen.addr, align 4
  call void (ptr, ...) @qemu_log(ptr noundef @.str.45, i32 noundef %call10, i64 noundef %3, i64 noundef %4, i32 noundef %5)
  br label %if.end

if.else:                                          ; preds = %if.then
  %6 = load i32, ptr %cmdlen.addr, align 4
  call void (ptr, ...) @qemu_log(ptr noundef @.str.46, i32 noundef %6)
  br label %if.end

if.end:                                           ; preds = %if.else, %if.then8
  br label %if.end11

if.end11:                                         ; preds = %if.end, %land.lhs.true5, %land.lhs.true, %entry
  ret void
}

; Function Attrs: nounwind sspstrong uwtable
define internal i32 @esp_fifo_pop_buf(ptr noundef %fifo, ptr noundef %dest, i32 noundef %maxlen) #0 {
entry:
  %retval = alloca i32, align 4
  %fifo.addr = alloca ptr, align 8
  %dest.addr = alloca ptr, align 8
  %maxlen.addr = alloca i32, align 4
  %buf = alloca ptr, align 8
  %n = alloca i32, align 4
  store ptr %fifo, ptr %fifo.addr, align 8
  store ptr %dest, ptr %dest.addr, align 8
  store i32 %maxlen, ptr %maxlen.addr, align 4
  %0 = load i32, ptr %maxlen.addr, align 4
  %cmp = icmp eq i32 %0, 0
  br i1 %cmp, label %if.then, label %if.end

if.then:                                          ; preds = %entry
  store i32 0, ptr %retval, align 4
  br label %return

if.end:                                           ; preds = %entry
  %1 = load ptr, ptr %fifo.addr, align 8
  %2 = load i32, ptr %maxlen.addr, align 4
  %call = call ptr @fifo8_pop_buf(ptr noundef %1, i32 noundef %2, ptr noundef %n)
  store ptr %call, ptr %buf, align 8
  %3 = load ptr, ptr %dest.addr, align 8
  %tobool = icmp ne ptr %3, null
  br i1 %tobool, label %if.then1, label %if.end2

if.then1:                                         ; preds = %if.end
  %4 = load ptr, ptr %dest.addr, align 8
  %5 = load ptr, ptr %buf, align 8
  %6 = load i32, ptr %n, align 4
  %conv = zext i32 %6 to i64
  call void @llvm.memcpy.p0.p0.i64(ptr align 1 %4, ptr align 1 %5, i64 %conv, i1 false)
  br label %if.end2

if.end2:                                          ; preds = %if.then1, %if.end
  %7 = load i32, ptr %n, align 4
  store i32 %7, ptr %retval, align 4
  br label %return

return:                                           ; preds = %if.end2, %if.then
  %8 = load i32, ptr %retval, align 4
  ret i32 %8
}

; Function Attrs: nounwind sspstrong uwtable
define internal void @trace_esp_handle_ti_cmd(i32 noundef %cmdlen) #0 {
entry:
  %cmdlen.addr = alloca i32, align 4
  store i32 %cmdlen, ptr %cmdlen.addr, align 4
  %0 = load i32, ptr %cmdlen.addr, align 4
  call void @_nocheck__trace_esp_handle_ti_cmd(i32 noundef %0)
  ret void
}

; Function Attrs: nounwind sspstrong uwtable
define internal void @esp_do_nodma(ptr noundef %s) #0 {
entry:
  %s.addr = alloca ptr, align 8
  %to_device = alloca i32, align 4
  %cmdlen = alloca i32, align 4
  %len = alloca i32, align 4
  %_a23 = alloca i32, align 4
  %_b24 = alloca i32, align 4
  %tmp = alloca i32, align 4
  %_a25 = alloca i32, align 4
  %_b26 = alloca i32, align 4
  %tmp43 = alloca i32, align 4
  store ptr %s, ptr %s.addr, align 8
  %0 = load ptr, ptr %s.addr, align 8
  %rregs = getelementptr inbounds %struct.ESPState, ptr %0, i32 0, i32 1
  %arrayidx = getelementptr [16 x i8], ptr %rregs, i64 0, i64 4
  %1 = load i8, ptr %arrayidx, align 4
  %conv = zext i8 %1 to i32
  %and = and i32 %conv, 7
  %cmp = icmp eq i32 %and, 0
  %conv1 = zext i1 %cmp to i32
  store i32 %conv1, ptr %to_device, align 4
  %2 = load ptr, ptr %s.addr, align 8
  %do_cmd = getelementptr inbounds %struct.ESPState, ptr %2, i32 0, i32 17
  %3 = load i32, ptr %do_cmd, align 4
  %tobool = icmp ne i32 %3, 0
  br i1 %tobool, label %if.then, label %if.end29

if.then:                                          ; preds = %entry
  %4 = load ptr, ptr %s.addr, align 8
  %cmdfifo = getelementptr inbounds %struct.ESPState, ptr %4, i32 0, i32 14
  %call = call i32 @fifo8_num_used(ptr noundef %cmdfifo)
  store i32 %call, ptr %cmdlen, align 4
  %5 = load i32, ptr %cmdlen, align 4
  call void @trace_esp_handle_ti_cmd(i32 noundef %5)
  %6 = load ptr, ptr %s.addr, align 8
  %ti_size = getelementptr inbounds %struct.ESPState, ptr %6, i32 0, i32 7
  store i32 0, ptr %ti_size, align 4
  %7 = load ptr, ptr %s.addr, align 8
  %rregs2 = getelementptr inbounds %struct.ESPState, ptr %7, i32 0, i32 1
  %arrayidx3 = getelementptr [16 x i8], ptr %rregs2, i64 0, i64 4
  %8 = load i8, ptr %arrayidx3, align 4
  %conv4 = zext i8 %8 to i32
  %and5 = and i32 %conv4, 7
  %cmp6 = icmp eq i32 %and5, 2
  br i1 %cmp6, label %if.then8, label %if.else

if.then8:                                         ; preds = %if.then
  %9 = load ptr, ptr %s.addr, align 8
  %cmdfifo_cdb_offset = getelementptr inbounds %struct.ESPState, ptr %9, i32 0, i32 15
  %10 = load i8, ptr %cmdfifo_cdb_offset, align 8
  %conv9 = zext i8 %10 to i32
  %11 = load ptr, ptr %s.addr, align 8
  %cmdfifo10 = getelementptr inbounds %struct.ESPState, ptr %11, i32 0, i32 14
  %call11 = call i32 @fifo8_num_used(ptr noundef %cmdfifo10)
  %cmp12 = icmp eq i32 %conv9, %call11
  br i1 %cmp12, label %if.then14, label %if.end

if.then14:                                        ; preds = %if.then8
  br label %return

if.end:                                           ; preds = %if.then8
  %12 = load ptr, ptr %s.addr, align 8
  %do_cmd15 = getelementptr inbounds %struct.ESPState, ptr %12, i32 0, i32 17
  store i32 0, ptr %do_cmd15, align 4
  %13 = load ptr, ptr %s.addr, align 8
  call void @do_cmd(ptr noundef %13)
  br label %if.end28

if.else:                                          ; preds = %if.then
  %14 = load ptr, ptr %s.addr, align 8
  %cmdfifo16 = getelementptr inbounds %struct.ESPState, ptr %14, i32 0, i32 14
  %call17 = call i32 @fifo8_num_used(ptr noundef %cmdfifo16)
  %conv18 = trunc i32 %call17 to i8
  %15 = load ptr, ptr %s.addr, align 8
  %cmdfifo_cdb_offset19 = getelementptr inbounds %struct.ESPState, ptr %15, i32 0, i32 15
  store i8 %conv18, ptr %cmdfifo_cdb_offset19, align 8
  %16 = load ptr, ptr %s.addr, align 8
  %rregs20 = getelementptr inbounds %struct.ESPState, ptr %16, i32 0, i32 1
  %arrayidx21 = getelementptr [16 x i8], ptr %rregs20, i64 0, i64 4
  store i8 18, ptr %arrayidx21, align 4
  %17 = load ptr, ptr %s.addr, align 8
  %rregs22 = getelementptr inbounds %struct.ESPState, ptr %17, i32 0, i32 1
  %arrayidx23 = getelementptr [16 x i8], ptr %rregs22, i64 0, i64 6
  store i8 4, ptr %arrayidx23, align 2
  %18 = load ptr, ptr %s.addr, align 8
  %rregs24 = getelementptr inbounds %struct.ESPState, ptr %18, i32 0, i32 1
  %arrayidx25 = getelementptr [16 x i8], ptr %rregs24, i64 0, i64 5
  %19 = load i8, ptr %arrayidx25, align 1
  %conv26 = zext i8 %19 to i32
  %or = or i32 %conv26, 16
  %conv27 = trunc i32 %or to i8
  store i8 %conv27, ptr %arrayidx25, align 1
  %20 = load ptr, ptr %s.addr, align 8
  call void @esp_raise_irq(ptr noundef %20)
  br label %if.end28

if.end28:                                         ; preds = %if.else, %if.end
  br label %return

if.end29:                                         ; preds = %entry
  %21 = load ptr, ptr %s.addr, align 8
  %current_req = getelementptr inbounds %struct.ESPState, ptr %21, i32 0, i32 13
  %22 = load ptr, ptr %current_req, align 8
  %tobool30 = icmp ne ptr %22, null
  br i1 %tobool30, label %if.end32, label %if.then31

if.then31:                                        ; preds = %if.end29
  br label %return

if.end32:                                         ; preds = %if.end29
  %23 = load ptr, ptr %s.addr, align 8
  %async_len = getelementptr inbounds %struct.ESPState, ptr %23, i32 0, i32 21
  %24 = load i32, ptr %async_len, align 8
  %cmp33 = icmp eq i32 %24, 0
  br i1 %cmp33, label %if.then35, label %if.end36

if.then35:                                        ; preds = %if.end32
  br label %return

if.end36:                                         ; preds = %if.end32
  %25 = load i32, ptr %to_device, align 4
  %tobool37 = icmp ne i32 %25, 0
  br i1 %tobool37, label %if.then38, label %if.else55

if.then38:                                        ; preds = %if.end36
  %26 = load ptr, ptr %s.addr, align 8
  %async_len39 = getelementptr inbounds %struct.ESPState, ptr %26, i32 0, i32 21
  %27 = load i32, ptr %async_len39, align 8
  store i32 %27, ptr %_a23, align 4
  store i32 16, ptr %_b24, align 4
  %28 = load i32, ptr %_a23, align 4
  %29 = load i32, ptr %_b24, align 4
  %cmp40 = icmp ult i32 %28, %29
  br i1 %cmp40, label %cond.true, label %cond.false

cond.true:                                        ; preds = %if.then38
  %30 = load i32, ptr %_a23, align 4
  br label %cond.end

cond.false:                                       ; preds = %if.then38
  %31 = load i32, ptr %_b24, align 4
  br label %cond.end

cond.end:                                         ; preds = %cond.false, %cond.true
  %cond = phi i32 [ %30, %cond.true ], [ %31, %cond.false ]
  store i32 %cond, ptr %tmp, align 4
  %32 = load i32, ptr %tmp, align 4
  store i32 %32, ptr %len, align 4
  %33 = load i32, ptr %len, align 4
  store i32 %33, ptr %_a25, align 4
  %34 = load ptr, ptr %s.addr, align 8
  %fifo = getelementptr inbounds %struct.ESPState, ptr %34, i32 0, i32 10
  %call42 = call i32 @fifo8_num_used(ptr noundef %fifo)
  store i32 %call42, ptr %_b26, align 4
  %35 = load i32, ptr %_a25, align 4
  %36 = load i32, ptr %_b26, align 4
  %cmp44 = icmp ult i32 %35, %36
  br i1 %cmp44, label %cond.true46, label %cond.false47

cond.true46:                                      ; preds = %cond.end
  %37 = load i32, ptr %_a25, align 4
  br label %cond.end48

cond.false47:                                     ; preds = %cond.end
  %38 = load i32, ptr %_b26, align 4
  br label %cond.end48

cond.end48:                                       ; preds = %cond.false47, %cond.true46
  %cond49 = phi i32 [ %37, %cond.true46 ], [ %38, %cond.false47 ]
  store i32 %cond49, ptr %tmp43, align 4
  %39 = load i32, ptr %tmp43, align 4
  store i32 %39, ptr %len, align 4
  %40 = load ptr, ptr %s.addr, align 8
  %fifo50 = getelementptr inbounds %struct.ESPState, ptr %40, i32 0, i32 10
  %41 = load ptr, ptr %s.addr, align 8
  %async_buf = getelementptr inbounds %struct.ESPState, ptr %41, i32 0, i32 22
  %42 = load ptr, ptr %async_buf, align 8
  %43 = load i32, ptr %len, align 4
  %call51 = call i32 @esp_fifo_pop_buf(ptr noundef %fifo50, ptr noundef %42, i32 noundef %43)
  %44 = load i32, ptr %len, align 4
  %45 = load ptr, ptr %s.addr, align 8
  %async_buf52 = getelementptr inbounds %struct.ESPState, ptr %45, i32 0, i32 22
  %46 = load ptr, ptr %async_buf52, align 8
  %idx.ext = sext i32 %44 to i64
  %add.ptr = getelementptr i8, ptr %46, i64 %idx.ext
  store ptr %add.ptr, ptr %async_buf52, align 8
  %47 = load i32, ptr %len, align 4
  %48 = load ptr, ptr %s.addr, align 8
  %async_len53 = getelementptr inbounds %struct.ESPState, ptr %48, i32 0, i32 21
  %49 = load i32, ptr %async_len53, align 8
  %sub = sub i32 %49, %47
  store i32 %sub, ptr %async_len53, align 8
  %50 = load i32, ptr %len, align 4
  %51 = load ptr, ptr %s.addr, align 8
  %ti_size54 = getelementptr inbounds %struct.ESPState, ptr %51, i32 0, i32 7
  %52 = load i32, ptr %ti_size54, align 4
  %add = add i32 %52, %50
  store i32 %add, ptr %ti_size54, align 4
  br label %if.end67

if.else55:                                        ; preds = %if.end36
  %53 = load ptr, ptr %s.addr, align 8
  %fifo56 = getelementptr inbounds %struct.ESPState, ptr %53, i32 0, i32 10
  %call57 = call zeroext i1 @fifo8_is_empty(ptr noundef %fifo56)
  br i1 %call57, label %if.then58, label %if.end66

if.then58:                                        ; preds = %if.else55
  %54 = load ptr, ptr %s.addr, align 8
  %fifo59 = getelementptr inbounds %struct.ESPState, ptr %54, i32 0, i32 10
  %55 = load ptr, ptr %s.addr, align 8
  %async_buf60 = getelementptr inbounds %struct.ESPState, ptr %55, i32 0, i32 22
  %56 = load ptr, ptr %async_buf60, align 8
  %arrayidx61 = getelementptr i8, ptr %56, i64 0
  %57 = load i8, ptr %arrayidx61, align 1
  call void @fifo8_push(ptr noundef %fifo59, i8 noundef zeroext %57)
  %58 = load ptr, ptr %s.addr, align 8
  %async_buf62 = getelementptr inbounds %struct.ESPState, ptr %58, i32 0, i32 22
  %59 = load ptr, ptr %async_buf62, align 8
  %incdec.ptr = getelementptr i8, ptr %59, i32 1
  store ptr %incdec.ptr, ptr %async_buf62, align 8
  %60 = load ptr, ptr %s.addr, align 8
  %async_len63 = getelementptr inbounds %struct.ESPState, ptr %60, i32 0, i32 21
  %61 = load i32, ptr %async_len63, align 8
  %dec = add i32 %61, -1
  store i32 %dec, ptr %async_len63, align 8
  %62 = load ptr, ptr %s.addr, align 8
  %ti_size64 = getelementptr inbounds %struct.ESPState, ptr %62, i32 0, i32 7
  %63 = load i32, ptr %ti_size64, align 4
  %dec65 = add i32 %63, -1
  store i32 %dec65, ptr %ti_size64, align 4
  br label %if.end66

if.end66:                                         ; preds = %if.then58, %if.else55
  br label %if.end67

if.end67:                                         ; preds = %if.end66, %cond.end48
  %64 = load ptr, ptr %s.addr, align 8
  %async_len68 = getelementptr inbounds %struct.ESPState, ptr %64, i32 0, i32 21
  %65 = load i32, ptr %async_len68, align 8
  %cmp69 = icmp eq i32 %65, 0
  br i1 %cmp69, label %if.then71, label %if.end73

if.then71:                                        ; preds = %if.end67
  %66 = load ptr, ptr %s.addr, align 8
  %current_req72 = getelementptr inbounds %struct.ESPState, ptr %66, i32 0, i32 13
  %67 = load ptr, ptr %current_req72, align 8
  call void @scsi_req_continue(ptr noundef %67)
  br label %return

if.end73:                                         ; preds = %if.end67
  %68 = load ptr, ptr %s.addr, align 8
  %rregs74 = getelementptr inbounds %struct.ESPState, ptr %68, i32 0, i32 1
  %arrayidx75 = getelementptr [16 x i8], ptr %rregs74, i64 0, i64 5
  %69 = load i8, ptr %arrayidx75, align 1
  %conv76 = zext i8 %69 to i32
  %or77 = or i32 %conv76, 16
  %conv78 = trunc i32 %or77 to i8
  store i8 %conv78, ptr %arrayidx75, align 1
  %70 = load ptr, ptr %s.addr, align 8
  call void @esp_raise_irq(ptr noundef %70)
  br label %return

return:                                           ; preds = %if.end73, %if.then71, %if.then35, %if.then31, %if.end28, %if.then14
  ret void
}