; Function Attrs: nounwind sspstrong uwtable
define internal fastcc void @esp_do_nodma(ptr noundef %s) unnamed_addr #0 {
entry:
  %n.i = alloca i32, align 4
  %_now.i.i = alloca %struct.timeval, align 8
  %arrayidx = getelementptr i8, ptr %s, i64 164
  %0 = load i8, ptr %arrayidx, align 4
  %1 = and i8 %0, 7
  %cmp = icmp eq i8 %1, 0
  %do_cmd = getelementptr inbounds nuw i8, ptr %s, i64 436
  %2 = load i32, ptr %do_cmd, align 4
  %tobool.not = icmp eq i32 %2, 0
  br i1 %tobool.not, label %if.end29, label %if.then

if.then:                                          ; preds = %entry
  %cmdfifo = getelementptr inbounds nuw i8, ptr %s, i64 408
  %call = tail call i32 @fifo8_num_used(ptr noundef nonnull %cmdfifo) #10
  call void @llvm.lifetime.start.p0(i64 16, ptr nonnull %_now.i.i)
  %3 = load i32, ptr @trace_events_enabled_count, align 4
  %tobool.i.i = icmp ne i32 %3, 0
  %4 = load i16, ptr @_TRACE_ESP_HANDLE_TI_CMD_DSTATE, align 2
  %tobool4.i.i = icmp ne i16 %4, 0
  %or.cond.i.i = select i1 %tobool.i.i, i1 %tobool4.i.i, i1 false
  br i1 %or.cond.i.i, label %land.lhs.true5.i.i, label %trace_esp_handle_ti_cmd.exit

land.lhs.true5.i.i:                               ; preds = %if.then
  %5 = load i32, ptr @qemu_loglevel, align 4
  %and.i.i.i = and i32 %5, 32768
  %cmp.i.not.i.i = icmp eq i32 %and.i.i.i, 0
  br i1 %cmp.i.not.i.i, label %trace_esp_handle_ti_cmd.exit, label %if.then.i.i

if.then.i.i:                                      ; preds = %land.lhs.true5.i.i
  %6 = load i8, ptr @message_with_timestamp, align 1
  %tobool7.i.i = trunc i8 %6 to i1
  br i1 %tobool7.i.i, label %if.then8.i.i, label %if.else.i.i

if.then8.i.i:                                     ; preds = %if.then.i.i
  %call9.i.i = call i32 @gettimeofday(ptr noundef nonnull %_now.i.i, ptr noundef null) #10
  %call10.i.i = tail call i32 @qemu_get_thread_id() #10
  %7 = load i64, ptr %_now.i.i, align 8
  %tv_usec.i.i = getelementptr inbounds nuw i8, ptr %_now.i.i, i64 8
  %8 = load i64, ptr %tv_usec.i.i, align 8
  tail call void (ptr, ...) @qemu_log(ptr noundef nonnull @.str.45, i32 noundef %call10.i.i, i64 noundef %7, i64 noundef %8, i32 noundef %call) #10
  br label %trace_esp_handle_ti_cmd.exit

if.else.i.i:                                      ; preds = %if.then.i.i
  tail call void (ptr, ...) @qemu_log(ptr noundef nonnull @.str.46, i32 noundef %call) #10
  br label %trace_esp_handle_ti_cmd.exit

trace_esp_handle_ti_cmd.exit:                     ; preds = %if.then, %land.lhs.true5.i.i, %if.then8.i.i, %if.else.i.i
  call void @llvm.lifetime.end.p0(i64 16, ptr nonnull %_now.i.i)
  %ti_size = getelementptr inbounds nuw i8, ptr %s, i64 212
  store i32 0, ptr %ti_size, align 4
  %9 = load i8, ptr %arrayidx, align 4
  %10 = and i8 %9, 7
  %cmp6 = icmp eq i8 %10, 2
  br i1 %cmp6, label %if.then8, label %if.else

if.then8:                                         ; preds = %trace_esp_handle_ti_cmd.exit
  %cmdfifo_cdb_offset = getelementptr inbounds nuw i8, ptr %s, i64 432
  %11 = load i8, ptr %cmdfifo_cdb_offset, align 8
  %conv9 = zext i8 %11 to i32
  %call11 = tail call i32 @fifo8_num_used(ptr noundef nonnull %cmdfifo) #10
  %cmp12 = icmp eq i32 %call11, %conv9
  br i1 %cmp12, label %return, label %if.end

if.end:                                           ; preds = %if.then8
  store i32 0, ptr %do_cmd, align 4
  tail call fastcc void @do_cmd(ptr noundef nonnull %s)
  br label %return

if.else:                                          ; preds = %trace_esp_handle_ti_cmd.exit
  %call17 = tail call i32 @fifo8_num_used(ptr noundef nonnull %cmdfifo) #10
  %conv18 = trunc i32 %call17 to i8
  %cmdfifo_cdb_offset19 = getelementptr inbounds nuw i8, ptr %s, i64 432
  store i8 %conv18, ptr %cmdfifo_cdb_offset19, align 8
  store i8 18, ptr %arrayidx, align 4
  %arrayidx23 = getelementptr i8, ptr %s, i64 166
  store i8 4, ptr %arrayidx23, align 2
  %arrayidx25 = getelementptr i8, ptr %s, i64 165
  %12 = load i8, ptr %arrayidx25, align 1
  %13 = or i8 %12, 16
  store i8 %13, ptr %arrayidx25, align 1
  tail call fastcc void @esp_raise_irq(ptr noundef nonnull %s)
  br label %return

if.end29:                                         ; preds = %entry
  %current_req = getelementptr inbounds nuw i8, ptr %s, i64 400
  %14 = load ptr, ptr %current_req, align 8
  %tobool30.not = icmp eq ptr %14, null
  br i1 %tobool30.not, label %return, label %if.end32

if.end32:                                         ; preds = %if.end29
  %async_len = getelementptr inbounds nuw i8, ptr %s, i64 448
  %15 = load i32, ptr %async_len, align 8
  %cmp33 = icmp eq i32 %15, 0
  br i1 %cmp33, label %return, label %if.end36

if.end36:                                         ; preds = %if.end32
  %fifo = getelementptr inbounds nuw i8, ptr %s, i64 224
  br i1 %cmp, label %if.then38, label %if.else55

if.then38:                                        ; preds = %if.end36
  %call42 = tail call i32 @fifo8_num_used(ptr noundef nonnull %fifo) #10
  %cond = tail call i32 @llvm.umin.i32(i32 %15, i32 %call42)
  %cond49 = tail call i32 @llvm.umin.i32(i32 %cond, i32 16)
  %async_buf = getelementptr inbounds nuw i8, ptr %s, i64 456
  %16 = load ptr, ptr %async_buf, align 8
  call void @llvm.lifetime.start.p0(i64 4, ptr nonnull %n.i)
  %cmp.i = icmp eq i32 %call42, 0
  br i1 %cmp.i, label %esp_fifo_pop_buf.exit, label %if.end.i

if.end.i:                                         ; preds = %if.then38
  %call.i = call ptr @fifo8_pop_buf(ptr noundef nonnull %fifo, i32 noundef %cond49, ptr noundef nonnull %n.i) #10
  %tobool.not.i = icmp eq ptr %16, null
  br i1 %tobool.not.i, label %esp_fifo_pop_buf.exit, label %if.then1.i

if.then1.i:                                       ; preds = %if.end.i
  %.pre.i = load i32, ptr %n.i, align 4
  %conv.i = zext i32 %.pre.i to i64
  call void @llvm.memcpy.p0.p0.i64(ptr nonnull align 1 %16, ptr align 1 %call.i, i64 %conv.i, i1 false)
  br label %esp_fifo_pop_buf.exit

esp_fifo_pop_buf.exit:                            ; preds = %if.then38, %if.end.i, %if.then1.i
  call void @llvm.lifetime.end.p0(i64 4, ptr nonnull %n.i)
  %17 = load ptr, ptr %async_buf, align 8
  %idx.ext = zext nneg i32 %cond49 to i64
  %add.ptr = getelementptr i8, ptr %17, i64 %idx.ext
  store ptr %add.ptr, ptr %async_buf, align 8
  %18 = load i32, ptr %async_len, align 8
  %sub = sub i32 %18, %cond49
  store i32 %sub, ptr %async_len, align 8
  %ti_size54 = getelementptr inbounds nuw i8, ptr %s, i64 212
  %19 = load i32, ptr %ti_size54, align 4
  %add = add i32 %19, %cond49
  store i32 %add, ptr %ti_size54, align 4
  br label %if.end67

if.else55:                                        ; preds = %if.end36
  %call57 = tail call zeroext i1 @fifo8_is_empty(ptr noundef nonnull %fifo) #10
  br i1 %call57, label %if.then58, label %if.end67thread-pre-split

if.then58:                                        ; preds = %if.else55
  %async_buf60 = getelementptr inbounds nuw i8, ptr %s, i64 456
  %20 = load ptr, ptr %async_buf60, align 8
  %21 = load i8, ptr %20, align 1
  tail call void @fifo8_push(ptr noundef nonnull %fifo, i8 noundef zeroext %21) #10
  %22 = load ptr, ptr %async_buf60, align 8
  %incdec.ptr = getelementptr i8, ptr %22, i64 1
  store ptr %incdec.ptr, ptr %async_buf60, align 8
  %23 = load i32, ptr %async_len, align 8
  %dec = add i32 %23, -1
  store i32 %dec, ptr %async_len, align 8
  %ti_size64 = getelementptr inbounds nuw i8, ptr %s, i64 212
  %24 = load i32, ptr %ti_size64, align 4
  %dec65 = add i32 %24, -1
  store i32 %dec65, ptr %ti_size64, align 4
  br label %if.end67

if.end67thread-pre-split:                         ; preds = %if.else55
  %.pr = load i32, ptr %async_len, align 8
  br label %if.end67

if.end67:                                         ; preds = %if.end67thread-pre-split, %if.then58, %esp_fifo_pop_buf.exit
  %25 = phi i32 [ %.pr, %if.end67thread-pre-split ], [ %dec, %if.then58 ], [ %sub, %esp_fifo_pop_buf.exit ]
  %cmp69 = icmp eq i32 %25, 0
  br i1 %cmp69, label %if.then71, label %if.end73

if.then71:                                        ; preds = %if.end67
  %26 = load ptr, ptr %current_req, align 8
  call void @scsi_req_continue(ptr noundef %26) #10
  br label %return

if.end73:                                         ; preds = %if.end67
  %arrayidx75 = getelementptr i8, ptr %s, i64 165
  %27 = load i8, ptr %arrayidx75, align 1
  %28 = or i8 %27, 16
  store i8 %28, ptr %arrayidx75, align 1
  call fastcc void @esp_raise_irq(ptr noundef nonnull %s)
  br label %return

return:                                           ; preds = %if.end32, %if.end29, %if.end, %if.else, %if.then8, %if.end73, %if.then71
  ret void
}